target datalayout = "e-m:e-p270:32:32-p271:32:32-p272:64:64-i64:64-i128:128-f80:128-n8:16:32:64-S128"
target triple = "x86_64-pc-linux-gnu"

%class.MemRegion = type { ptr, i64 }
%class.SerialHeap = type { %class.CollectedHeap, ptr, ptr, ptr, ptr, ptr, ptr, ptr, ptr, ptr, ptr, ptr }
%class.CollectedHeap = type { ptr, ptr, i64, i64, %class.SoftRefPolicy, %class.MemRegion, i8, i64, i32, i32, i32, i32, ptr, ptr }
%class.SoftRefPolicy = type { i8, i8 }

@_ZL15_is_scavengable = internal global { ptr } { ptr getelementptr inbounds inrange(-16, 8) ({ [3 x ptr] }, ptr @_ZTV16GenIsScavengable, i32 0, i32 0, i32 2) }, align 8

; Function Attrs: mustprogress nounwind uwtable
define hidden void @_ZN10SerialHeap15post_initializeEv(ptr noundef nonnull align 8 dereferenceable(192) %0) unnamed_addr #1 align 2 {
  %2 = alloca ptr, align 8
  %3 = alloca ptr, align 8
  store ptr %0, ptr %2, align 8
  %4 = load ptr, ptr %2, align 8
  call void @_ZN13CollectedHeap15post_initializeEv(ptr noundef nonnull align 8 dereferenceable(104) %4)
  %5 = getelementptr inbounds %class.SerialHeap, ptr %4, i32 0, i32 1
  %6 = load ptr, ptr %5, align 8
  store ptr %6, ptr %3, align 8
  %7 = load ptr, ptr %3, align 8
  call void @_ZN16DefNewGeneration18ref_processor_initEv(ptr noundef nonnull align 8 dereferenceable(744) %7)
  call void @_ZN12SerialFullGC10initializeEv()
  call void @_ZN19ScavengableNMethods10initializeEP17BoolObjectClosure(ptr noundef @_ZL15_is_scavengable)
  ret void
}