; Function Attrs: mustprogress nounwind uwtable
define hidden void @_ZN10SerialHeap15post_initializeEv(ptr noundef nonnull align 8 dereferenceable(192) %0) unnamed_addr #0 align 2 {
  tail call void @_ZN13CollectedHeap15post_initializeEv(ptr noundef nonnull align 8 dereferenceable(104) %0) #16
  %2 = getelementptr inbounds i8, ptr %0, i64 104
  %3 = load ptr, ptr %2, align 8
  tail call void @_ZN16DefNewGeneration18ref_processor_initEv(ptr noundef nonnull align 8 dereferenceable(744) %3) #16
  tail call void @_ZN12SerialFullGC10initializeEv() #16
  tail call void @_ZN19ScavengableNMethods10initializeEP17BoolObjectClosure(ptr noundef nonnull @_ZL15_is_scavengable) #16
  ret void
}